target datalayout = "e-m:e-p270:32:32-p271:32:32-p272:64:64-i64:64-i128:128-f80:128-n8:16:32:64-S128"
target triple = "x86_64-pc-linux-gnu"

; Function Attrs: mustprogress uwtable
define ptr @proj_context_destroy(ptr noundef %0) #1 {
  %2 = alloca ptr, align 8
  %3 = alloca ptr, align 8
  store ptr %0, ptr %3, align 8
  %4 = load ptr, ptr %3, align 8
  %5 = icmp eq ptr null, %4
  br i1 %5, label %6, label %7

6:                                                ; preds = %1
  store ptr null, ptr %2, align 8
  br label %17

7:                                                ; preds = %1
  %8 = call noundef ptr @_Z18pj_get_default_ctxv()
  %9 = load ptr, ptr %3, align 8
  %10 = icmp eq ptr %8, %9
  br i1 %10, label %11, label %12

11:                                               ; preds = %7
  store ptr null, ptr %2, align 8
  br label %17

12:                                               ; preds = %7
  %13 = load ptr, ptr %3, align 8
  %14 = icmp eq ptr %13, null
  br i1 %14, label %16, label %15

15:                                               ; preds = %12
  call void @_ZN6pj_ctxD1Ev(ptr noundef nonnull align 8 dereferenceable(516) %13) #19
  call void @_ZdlPv(ptr noundef %13) #24
  br label %16

16:                                               ; preds = %15, %12
  store ptr null, ptr %2, align 8
  br label %17

17:                                               ; preds = %16, %11, %6
  %18 = load ptr, ptr %2, align 8
  ret ptr %18
}