; Function Attrs: mustprogress uwtable
define noalias noundef ptr @proj_context_destroy(ptr noundef %0) local_unnamed_addr #1 {
  %2 = icmp eq ptr %0, null
  br i1 %2, label %7, label %3

3:                                                ; preds = %1
  %4 = tail call noundef ptr @_Z18pj_get_default_ctxv()
  %5 = icmp eq ptr %4, %0
  br i1 %5, label %7, label %6

6:                                                ; preds = %3
  tail call void @_ZN6pj_ctxD1Ev(ptr noundef nonnull align 8 dereferenceable(516) %0) #33
  tail call void @_ZdlPv(ptr noundef nonnull %0) #39
  br label %7

7:                                                ; preds = %3, %1, %6
  ret ptr null
}